; Function Attrs: mustprogress nofree norecurse nosync nounwind sspstrong willreturn memory(argmem: readwrite) uwtable
define hidden void @FLAC__ogg_decoder_aspect_next_link(ptr noundef captures(none) initializes((468, 476), (480, 484)) %0) local_unnamed_addr #6 {
  %2 = getelementptr inbounds nuw i8, ptr %0, i64 480
  store i32 0, ptr %2, align 8, !tbaa !26
  %3 = getelementptr inbounds nuw i8, ptr %0, i64 652
  %4 = load i32, ptr %3, align 4, !tbaa !33
  %5 = add i32 %4, 1
  store i32 %5, ptr %3, align 4, !tbaa !33
  %6 = getelementptr inbounds nuw i8, ptr %0, i64 468
  store i32 1, ptr %6, align 4, !tbaa !35
  %7 = getelementptr inbounds nuw i8, ptr %0, i64 472
  store i32 0, ptr %7, align 8, !tbaa !36
  ret void
}